; ModuleID = '31/1948.c'
source_filename = "31/1948.c"
target datalayout = "e-m:e-p270:32:32-p271:32:32-p272:64:64-i64:64-f80:128-n8:16:32:64-S128"
target triple = "x86_64-pc-linux-gnu"

%struct.student = type { [20 x i8], [30 x i8], i8, i32, [20 x i8], [40 x i8], %struct.student* }

@.str = private unnamed_addr constant [3 x i8] c"%s\00", align 1
@.str.1 = private unnamed_addr constant [15 x i8] c"%s %c %d %s %s\00", align 1
@.str.2 = private unnamed_addr constant [19 x i8] c"%s %s %c %d %s %s\0A\00", align 1

; Function Attrs: noinline nounwind uwtable
define dso_local void @insert(%struct.student* %0) #0 {
  %2 = alloca %struct.student*, align 8
  %3 = alloca %struct.student*, align 8
  store %struct.student* %0, %struct.student** %2, align 8
  %4 = call noalias i8* @malloc(i64 128) #3
  %5 = bitcast i8* %4 to %struct.student*
  store %struct.student* %5, %struct.student** %3, align 8
  %6 = load %struct.student*, %struct.student** %2, align 8
  %7 = getelementptr inbounds %struct.student, %struct.student* %6, i32 0, i32 6
  %8 = load %struct.student*, %struct.student** %7, align 8
  %9 = load %struct.student*, %struct.student** %3, align 8
  %10 = getelementptr inbounds %struct.student, %struct.student* %9, i32 0, i32 6
  store %struct.student* %8, %struct.student** %10, align 8
  %11 = load %struct.student*, %struct.student** %3, align 8
  %12 = load %struct.student*, %struct.student** %2, align 8
  %13 = getelementptr inbounds %struct.student, %struct.student* %12, i32 0, i32 6
  store %struct.student* %11, %struct.student** %13, align 8
  ret void
}

; Function Attrs: nounwind
declare dso_local noalias i8* @malloc(i64) #1

; Function Attrs: noinline nounwind uwtable
define dso_local i32 @main() #0 {
  %1 = alloca i32, align 4
  %2 = alloca %struct.student*, align 8
  %3 = alloca %struct.student*, align 8
  store i32 0, i32* %1, align 4
  %4 = call noalias i8* @malloc(i64 128) #3
  %5 = bitcast i8* %4 to %struct.student*
  store %struct.student* %5, %struct.student** %2, align 8
  %6 = load %struct.student*, %struct.student** %2, align 8
  %7 = getelementptr inbounds %struct.student, %struct.student* %6, i32 0, i32 6
  store %struct.student* null, %struct.student** %7, align 8
  br label %8

8:                                                ; preds = %0, %25
  %9 = load %struct.student*, %struct.student** %2, align 8
  call void @insert(%struct.student* %9)
  %10 = load %struct.student*, %struct.student** %2, align 8
  %11 = getelementptr inbounds %struct.student, %struct.student* %10, i32 0, i32 6
  %12 = load %struct.student*, %struct.student** %11, align 8
  %13 = getelementptr inbounds %struct.student, %struct.student* %12, i32 0, i32 0
  %14 = getelementptr inbounds [20 x i8], [20 x i8]* %13, i64 0, i64 0
  %15 = call i32 (i8*, ...) @__isoc99_scanf(i8* getelementptr inbounds ([3 x i8], [3 x i8]* @.str, i64 0, i64 0), i8* %14)
  %16 = load %struct.student*, %struct.student** %2, align 8
  %17 = getelementptr inbounds %struct.student, %struct.student* %16, i32 0, i32 6
  %18 = load %struct.student*, %struct.student** %17, align 8
  %19 = getelementptr inbounds %struct.student, %struct.student* %18, i32 0, i32 0
  %20 = getelementptr inbounds [20 x i8], [20 x i8]* %19, i64 0, i64 0
  %21 = load i8, i8* %20, align 8
  %22 = sext i8 %21 to i32
  %23 = icmp eq i32 %22, 101
  br i1 %23, label %24, label %25

24:                                               ; preds = %8
  br label %49

25:                                               ; preds = %8
  %26 = load %struct.student*, %struct.student** %2, align 8
  %27 = getelementptr inbounds %struct.student, %struct.student* %26, i32 0, i32 6
  %28 = load %struct.student*, %struct.student** %27, align 8
  %29 = getelementptr inbounds %struct.student, %struct.student* %28, i32 0, i32 1
  %30 = getelementptr inbounds [30 x i8], [30 x i8]* %29, i64 0, i64 0
  %31 = load %struct.student*, %struct.student** %2, align 8
  %32 = getelementptr inbounds %struct.student, %struct.student* %31, i32 0, i32 6
  %33 = load %struct.student*, %struct.student** %32, align 8
  %34 = getelementptr inbounds %struct.student, %struct.student* %33, i32 0, i32 2
  %35 = load %struct.student*, %struct.student** %2, align 8
  %36 = getelementptr inbounds %struct.student, %struct.student* %35, i32 0, i32 6
  %37 = load %struct.student*, %struct.student** %36, align 8
  %38 = getelementptr inbounds %struct.student, %struct.student* %37, i32 0, i32 3
  %39 = load %struct.student*, %struct.student** %2, align 8
  %40 = getelementptr inbounds %struct.student, %struct.student* %39, i32 0, i32 6
  %41 = load %struct.student*, %struct.student** %40, align 8
  %42 = getelementptr inbounds %struct.student, %struct.student* %41, i32 0, i32 4
  %43 = load %struct.student*, %struct.student** %2, align 8
  %44 = getelementptr inbounds %struct.student, %struct.student* %43, i32 0, i32 6
  %45 = load %struct.student*, %struct.student** %44, align 8
  %46 = getelementptr inbounds %struct.student, %struct.student* %45, i32 0, i32 5
  %47 = getelementptr inbounds [40 x i8], [40 x i8]* %46, i64 0, i64 0
  %48 = call i32 (i8*, ...) @__isoc99_scanf(i8* getelementptr inbounds ([15 x i8], [15 x i8]* @.str.1, i64 0, i64 0), i8* %30, i8* %34, i32* %38, [20 x i8]* %42, i8* %47)
  br label %8

49:                                               ; preds = %24
  %50 = load %struct.student*, %struct.student** %2, align 8
  %51 = getelementptr inbounds %struct.student, %struct.student* %50, i32 0, i32 6
  %52 = load %struct.student*, %struct.student** %51, align 8
  store %struct.student* %52, %struct.student** %3, align 8
  br label %53

53:                                               ; preds = %49, %82
  %54 = load %struct.student*, %struct.student** %3, align 8
  %55 = getelementptr inbounds %struct.student, %struct.student* %54, i32 0, i32 6
  %56 = load %struct.student*, %struct.student** %55, align 8
  store %struct.student* %56, %struct.student** %3, align 8
  %57 = load %struct.student*, %struct.student** %3, align 8
  %58 = getelementptr inbounds %struct.student, %struct.student* %57, i32 0, i32 0
  %59 = getelementptr inbounds [20 x i8], [20 x i8]* %58, i64 0, i64 0
  %60 = load %struct.student*, %struct.student** %3, align 8
  %61 = getelementptr inbounds %struct.student, %struct.student* %60, i32 0, i32 1
  %62 = getelementptr inbounds [30 x i8], [30 x i8]* %61, i64 0, i64 0
  %63 = load %struct.student*, %struct.student** %3, align 8
  %64 = getelementptr inbounds %struct.student, %struct.student* %63, i32 0, i32 2
  %65 = load i8, i8* %64, align 2
  %66 = sext i8 %65 to i32
  %67 = load %struct.student*, %struct.student** %3, align 8
  %68 = getelementptr inbounds %struct.student, %struct.student* %67, i32 0, i32 3
  %69 = load i32, i32* %68, align 4
  %70 = load %struct.student*, %struct.student** %3, align 8
  %71 = getelementptr inbounds %struct.student, %struct.student* %70, i32 0, i32 4
  %72 = getelementptr inbounds [20 x i8], [20 x i8]* %71, i64 0, i64 0
  %73 = load %struct.student*, %struct.student** %3, align 8
  %74 = getelementptr inbounds %struct.student, %struct.student* %73, i32 0, i32 5
  %75 = getelementptr inbounds [40 x i8], [40 x i8]* %74, i64 0, i64 0
  %76 = call i32 (i8*, ...) @printf(i8* getelementptr inbounds ([19 x i8], [19 x i8]* @.str.2, i64 0, i64 0), i8* %59, i8* %62, i32 %66, i32 %69, i8* %72, i8* %75)
  %77 = load %struct.student*, %struct.student** %3, align 8
  %78 = getelementptr inbounds %struct.student, %struct.student* %77, i32 0, i32 6
  %79 = load %struct.student*, %struct.student** %78, align 8
  %80 = icmp eq %struct.student* %79, null
  br i1 %80, label %81, label %82

81:                                               ; preds = %53
  br label %83

82:                                               ; preds = %53
  br label %53

83:                                               ; preds = %81
  br label %84

84:                                               ; preds = %83, %92
  %85 = load %struct.student*, %struct.student** %2, align 8
  %86 = getelementptr inbounds %struct.student, %struct.student* %85, i32 0, i32 6
  %87 = load %struct.student*, %struct.student** %86, align 8
  %88 = getelementptr inbounds %struct.student, %struct.student* %87, i32 0, i32 6
  %89 = load %struct.student*, %struct.student** %88, align 8
  %90 = icmp eq %struct.student* %89, null
  br i1 %90, label %91, label %92

91:                                               ; preds = %84
  br label %103

92:                                               ; preds = %84
  %93 = load %struct.student*, %struct.student** %2, align 8
  %94 = getelementptr inbounds %struct.student, %struct.student* %93, i32 0, i32 6
  %95 = load %struct.student*, %struct.student** %94, align 8
  store %struct.student* %95, %struct.student** %3, align 8
  %96 = load %struct.student*, %struct.student** %3, align 8
  %97 = getelementptr inbounds %struct.student, %struct.student* %96, i32 0, i32 6
  %98 = load %struct.student*, %struct.student** %97, align 8
  %99 = load %struct.student*, %struct.student** %2, align 8
  %100 = getelementptr inbounds %struct.student, %struct.student* %99, i32 0, i32 6
  store %struct.student* %98, %struct.student** %100, align 8
  %101 = load %struct.student*, %struct.student** %3, align 8
  %102 = bitcast %struct.student* %101 to i8*
  call void @free(i8* %102) #3
  br label %84

103:                                              ; preds = %91
  %104 = load %struct.student*, %struct.student** %2, align 8
  %105 = getelementptr inbounds %struct.student, %struct.student* %104, i32 0, i32 6
  %106 = load %struct.student*, %struct.student** %105, align 8
  %107 = bitcast %struct.student* %106 to i8*
  call void @free(i8* %107) #3
  %108 = load %struct.student*, %struct.student** %2, align 8
  %109 = bitcast %struct.student* %108 to i8*
  call void @free(i8* %109) #3
  %110 = load i32, i32* %1, align 4
  ret i32 %110
}

declare dso_local i32 @__isoc99_scanf(i8*, ...) #2

declare dso_local i32 @printf(i8*, ...) #2

; Function Attrs: nounwind
declare dso_local void @free(i8*) #1


!llvm.module.flags = !{!0}
!llvm.ident = !{!1}

!0 = !{i32 1, !"wchar_size", i32 4}
!1 = !{!"clang version 10.0.0-4ubuntu1 "}
